target datalayout = "e-m:e-p270:32:32-p271:32:32-p272:64:64-i64:64-i128:128-f80:128-n8:16:32:64-S128"
target triple = "x86_64-pc-linux-gnu"

@global_mac_tsn_size = internal global i32 0, align 4
@proto_register_umts_mac.ett = internal global [10 x ptr] [ptr @ett_mac, ptr @ett_mac_fach, ptr @ett_mac_rach, ptr @ett_mac_dch, ptr @ett_mac_pch, ptr @ett_mac_edch, ptr @ett_mac_hsdsch, ptr @ett_mac_edch_type2, ptr @ett_mac_edch_type2_sdu, ptr @ett_mac_resolved_urnti], align 16
@.str.65 = private unnamed_addr constant [4 x i8] c"MAC\00", align 1
@.str.66 = private unnamed_addr constant [4 x i8] c"mac\00", align 1
@proto_umts_mac = hidden global i32 0, align 4
@.str.67 = private unnamed_addr constant [13 x i8] c"mac.fdd.rach\00", align 1
@.str.68 = private unnamed_addr constant [13 x i8] c"mac.fdd.fach\00", align 1
@.str.69 = private unnamed_addr constant [12 x i8] c"mac.fdd.pch\00", align 1
@.str.70 = private unnamed_addr constant [12 x i8] c"mac.fdd.dch\00", align 1
@.str.71 = private unnamed_addr constant [13 x i8] c"mac.fdd.edch\00", align 1
@.str.72 = private unnamed_addr constant [19 x i8] c"mac.fdd.edch.type2\00", align 1
@.str.73 = private unnamed_addr constant [15 x i8] c"mac.fdd.hsdsch\00", align 1
@.str.74 = private unnamed_addr constant [9 x i8] c"tsn_size\00", align 1
@.str.75 = private unnamed_addr constant [9 x i8] c"TSN size\00", align 1
@.str.76 = private unnamed_addr constant [37 x i8] c"TSN size in bits, either 6 or 14 bit\00", align 1

; Function Attrs: null_pointer_is_valid sspstrong uwtable
define hidden void @proto_register_umts_mac() #1 {
  %1 = alloca ptr, align 8
  %2 = alloca ptr, align 8
  call void @llvm.lifetime.start.p0(i64 8, ptr %1) #11
  call void @llvm.lifetime.start.p0(i64 8, ptr %2) #11
  %3 = call i32 @proto_register_protocol(ptr noundef @.str.65, ptr noundef @.str.65, ptr noundef @.str.66)
  store i32 %3, ptr @proto_umts_mac, align 4
  %4 = load i32, ptr @proto_umts_mac, align 4
  call void @proto_register_field_array(i32 noundef %4, ptr noundef @proto_register_umts_mac.hf, i32 noundef 19)
  call void @proto_register_subtree_array(ptr noundef @proto_register_umts_mac.ett, i32 noundef 10)
  %5 = load i32, ptr @proto_umts_mac, align 4
  %6 = call ptr @expert_register_protocol(i32 noundef %5)
  store ptr %6, ptr %2, align 8
  %7 = load ptr, ptr %2, align 8
  call void @expert_register_field_array(ptr noundef %7, ptr noundef @proto_register_umts_mac.ei, i32 noundef 13)
  %8 = load i32, ptr @proto_umts_mac, align 4
  %9 = call ptr @register_dissector(ptr noundef @.str.67, ptr noundef @dissect_mac_fdd_rach, i32 noundef %8)
  %10 = load i32, ptr @proto_umts_mac, align 4
  %11 = call ptr @register_dissector(ptr noundef @.str.68, ptr noundef @dissect_mac_fdd_fach, i32 noundef %10)
  %12 = load i32, ptr @proto_umts_mac, align 4
  %13 = call ptr @register_dissector(ptr noundef @.str.69, ptr noundef @dissect_mac_fdd_pch, i32 noundef %12)
  %14 = load i32, ptr @proto_umts_mac, align 4
  %15 = call ptr @register_dissector(ptr noundef @.str.70, ptr noundef @dissect_mac_fdd_dch, i32 noundef %14)
  %16 = load i32, ptr @proto_umts_mac, align 4
  %17 = call ptr @register_dissector(ptr noundef @.str.71, ptr noundef @dissect_mac_fdd_edch, i32 noundef %16)
  %18 = load i32, ptr @proto_umts_mac, align 4
  %19 = call ptr @register_dissector(ptr noundef @.str.72, ptr noundef @dissect_mac_fdd_edch_type2, i32 noundef %18)
  %20 = load i32, ptr @proto_umts_mac, align 4
  %21 = call ptr @register_dissector(ptr noundef @.str.73, ptr noundef @dissect_mac_fdd_hsdsch, i32 noundef %20)
  call void @register_init_routine(ptr noundef @mac_init)
  call void @register_cleanup_routine(ptr noundef @mac_cleanup)
  %22 = load i32, ptr @proto_umts_mac, align 4
  %23 = call ptr @prefs_register_protocol(i32 noundef %22, ptr noundef null)
  store ptr %23, ptr %1, align 8
  %24 = load ptr, ptr %1, align 8
  call void @prefs_register_enum_preference(ptr noundef %24, ptr noundef @.str.74, ptr noundef @.str.75, ptr noundef @.str.76, ptr noundef @global_mac_tsn_size, ptr noundef @tsn_size_enumvals, i1 noundef zeroext false)
  call void @llvm.lifetime.end.p0(i64 8, ptr %2) #11
  call void @llvm.lifetime.end.p0(i64 8, ptr %1) #11
  ret void
}