; Function Attrs: null_pointer_is_valid sspstrong uwtable
define hidden void @proto_register_umts_mac() local_unnamed_addr #1 {
  %1 = tail call i32 @proto_register_protocol(ptr noundef nonnull @.str.65, ptr noundef nonnull @.str.65, ptr noundef nonnull @.str.66)
  store i32 %1, ptr @proto_umts_mac, align 4
  tail call void @proto_register_field_array(i32 noundef %1, ptr noundef nonnull @proto_register_umts_mac.hf, i32 noundef 19)
  tail call void @proto_register_subtree_array(ptr noundef nonnull @proto_register_umts_mac.ett, i32 noundef 10)
  %2 = load i32, ptr @proto_umts_mac, align 4
  %3 = tail call ptr @expert_register_protocol(i32 noundef %2)
  tail call void @expert_register_field_array(ptr noundef %3, ptr noundef nonnull @proto_register_umts_mac.ei, i32 noundef 13)
  %4 = load i32, ptr @proto_umts_mac, align 4
  %5 = tail call ptr @register_dissector(ptr noundef nonnull @.str.67, ptr noundef nonnull @dissect_mac_fdd_rach, i32 noundef %4)
  %6 = load i32, ptr @proto_umts_mac, align 4
  %7 = tail call ptr @register_dissector(ptr noundef nonnull @.str.68, ptr noundef nonnull @dissect_mac_fdd_fach, i32 noundef %6)
  %8 = load i32, ptr @proto_umts_mac, align 4
  %9 = tail call ptr @register_dissector(ptr noundef nonnull @.str.69, ptr noundef nonnull @dissect_mac_fdd_pch, i32 noundef %8)
  %10 = load i32, ptr @proto_umts_mac, align 4
  %11 = tail call ptr @register_dissector(ptr noundef nonnull @.str.70, ptr noundef nonnull @dissect_mac_fdd_dch, i32 noundef %10)
  %12 = load i32, ptr @proto_umts_mac, align 4
  %13 = tail call ptr @register_dissector(ptr noundef nonnull @.str.71, ptr noundef nonnull @dissect_mac_fdd_edch, i32 noundef %12)
  %14 = load i32, ptr @proto_umts_mac, align 4
  %15 = tail call ptr @register_dissector(ptr noundef nonnull @.str.72, ptr noundef nonnull @dissect_mac_fdd_edch_type2, i32 noundef %14)
  %16 = load i32, ptr @proto_umts_mac, align 4
  %17 = tail call ptr @register_dissector(ptr noundef nonnull @.str.73, ptr noundef nonnull @dissect_mac_fdd_hsdsch, i32 noundef %16)
  tail call void @register_init_routine(ptr noundef nonnull @mac_init)
  tail call void @register_cleanup_routine(ptr noundef nonnull @mac_cleanup)
  %18 = load i32, ptr @proto_umts_mac, align 4
  %19 = tail call ptr @prefs_register_protocol(i32 noundef %18, ptr noundef null)
  tail call void @prefs_register_enum_preference(ptr noundef %19, ptr noundef nonnull @.str.74, ptr noundef nonnull @.str.75, ptr noundef nonnull @.str.76, ptr noundef nonnull @global_mac_tsn_size, ptr noundef nonnull @tsn_size_enumvals, i1 noundef zeroext false)
  ret void
}